target datalayout = "e-m:e-p270:32:32-p271:32:32-p272:64:64-i64:64-i128:128-f80:128-n8:16:32:64-S128"
target triple = "x86_64-pc-linux-gnu"

%struct.H5FL_blk_head_t = type { i8, i32, i32, i64, ptr, ptr }
%struct.H5HL_t = type { i64, i64, i64, i64, i8, ptr, ptr, i64, i64, i64, ptr, i64, i64, ptr }

@H5HL_init_g = external global i8, align 1
@H5_libterm_g = external global i8, align 1
@.str.2 = private unnamed_addr constant [103 x i8] c"generated/home/dtcxzyw/WorkSpace/Projects/compilers/llvm-opt-benchmark/bench/hdf5/hdf5/src/H5HLcache.c\00", align 1
@H5E_HEAP_g = external global i64, align 8
@H5E_CANTALLOC_g = external global i64, align 8
@H5_lheap_chunk_blk_free_list = external global %struct.H5FL_blk_head_t, align 8
@.str.12 = private unnamed_addr constant [25 x i8] c"memory allocation failed\00", align 1
@H5E_CANTINIT_g = external global i64, align 8
@.str.13 = private unnamed_addr constant [27 x i8] c"can't initialize free list\00", align 1
@H5E_CANTRELEASE_g = external global i64, align 8
@__func__.H5HL__cache_datablock_deserialize = private unnamed_addr constant [34 x i8] c"H5HL__cache_datablock_deserialize\00", align 1
@.str.18 = private unnamed_addr constant [39 x i8] c"can't allocate data block image buffer\00", align 1
@.str.19 = private unnamed_addr constant [40 x i8] c"unable to destroy local heap data block\00", align 1

; Function Attrs: nounwind uwtable
define internal ptr @H5HL__cache_datablock_deserialize(ptr noundef %0, i64 noundef %1, ptr noundef %2, ptr noundef %3) #0 {
  %5 = alloca ptr, align 8
  %6 = alloca i64, align 8
  %7 = alloca ptr, align 8
  %8 = alloca ptr, align 8
  %9 = alloca ptr, align 8
  %10 = alloca ptr, align 8
  %11 = alloca ptr, align 8
  %12 = alloca i8, align 1
  store ptr %0, ptr %5, align 8, !tbaa !3
  store i64 %1, ptr %6, align 8, !tbaa !13
  store ptr %2, ptr %7, align 8, !tbaa !3
  store ptr %3, ptr %8, align 8, !tbaa !29
  call void @llvm.lifetime.start.p0(i64 8, ptr %9) #7
  store ptr null, ptr %9, align 8, !tbaa !62
  call void @llvm.lifetime.start.p0(i64 8, ptr %10) #7
  %13 = load ptr, ptr %7, align 8, !tbaa !3
  store ptr %13, ptr %10, align 8, !tbaa !31
  call void @llvm.lifetime.start.p0(i64 8, ptr %11) #7
  store ptr null, ptr %11, align 8, !tbaa !3
  call void @llvm.lifetime.start.p0(i64 1, ptr %12) #7
  store i8 0, ptr %12, align 1, !tbaa !9
  %14 = load i8, ptr @H5HL_init_g, align 1, !tbaa !9, !range !11, !noundef !12
  %15 = trunc i8 %14 to i1
  br i1 %15, label %20, label %16

16:                                               ; preds = %4
  %17 = load i8, ptr @H5_libterm_g, align 1, !tbaa !9, !range !11, !noundef !12
  %18 = trunc i8 %17 to i1
  %19 = xor i1 %18, true
  br label %20

20:                                               ; preds = %16, %4
  %21 = phi i1 [ true, %4 ], [ %19, %16 ]
  %22 = xor i1 %21, true
  %23 = xor i1 %22, true
  %24 = zext i1 %23 to i32
  %25 = sext i32 %24 to i64
  %26 = call i64 @llvm.expect.i64(i64 %25, i64 1)
  %27 = icmp ne i64 %26, 0
  br i1 %27, label %28, label %142

28:                                               ; preds = %20
  %29 = load ptr, ptr %10, align 8, !tbaa !31
  %30 = call ptr @H5HL__dblk_new(ptr noundef %29)
  store ptr %30, ptr %9, align 8, !tbaa !62
  %31 = icmp eq ptr null, %30
  br i1 %31, label %32, label %51

32:                                               ; preds = %28
  br label %33

33:                                               ; preds = %32
  br label %34

34:                                               ; preds = %33
  br label %35

35:                                               ; preds = %34
  %36 = load i64, ptr @H5E_HEAP_g, align 8, !tbaa !13
  %37 = load i64, ptr @H5E_CANTALLOC_g, align 8, !tbaa !13
  %38 = call i32 (ptr, ptr, i32, i64, i64, ptr, ...) @H5E_printf_stack(ptr noundef @.str.2, ptr noundef @__func__.H5HL__cache_datablock_deserialize, i32 noundef 705, i64 noundef %36, i64 noundef %37, ptr noundef @.str.12)
  br label %39

39:                                               ; preds = %35
  br label %40

40:                                               ; preds = %39
  store i8 1, ptr %12, align 1, !tbaa !9
  %41 = load i8, ptr %12, align 1, !tbaa !9, !range !11, !noundef !12
  %42 = trunc i8 %41 to i1
  %43 = zext i1 %42 to i8
  store i8 %43, ptr %12, align 1, !tbaa !9
  br label %44

44:                                               ; preds = %40
  br label %45

45:                                               ; preds = %44
  br label %46

46:                                               ; preds = %45
  store ptr null, ptr %11, align 8, !tbaa !3
  br label %114

47:                                               ; No predecessors!
  br label %48

48:                                               ; preds = %47
  br label %49

49:                                               ; preds = %48
  br label %50

50:                                               ; preds = %49
  br label %51

51:                                               ; preds = %50, %28
  %52 = load ptr, ptr %10, align 8, !tbaa !31
  %53 = getelementptr inbounds nuw %struct.H5HL_t, ptr %52, i32 0, i32 13
  %54 = load ptr, ptr %53, align 8, !tbaa !39
  %55 = icmp eq ptr null, %54
  br i1 %55, label %56, label %112

56:                                               ; preds = %51
  %57 = load ptr, ptr %10, align 8, !tbaa !31
  %58 = getelementptr inbounds nuw %struct.H5HL_t, ptr %57, i32 0, i32 12
  %59 = load i64, ptr %58, align 8, !tbaa !26
  %60 = call noalias ptr @H5FL_blk_malloc(ptr noundef @H5_lheap_chunk_blk_free_list, i64 noundef %59)
  %61 = load ptr, ptr %10, align 8, !tbaa !31
  %62 = getelementptr inbounds nuw %struct.H5HL_t, ptr %61, i32 0, i32 13
  store ptr %60, ptr %62, align 8, !tbaa !39
  %63 = icmp eq ptr null, %60
  br i1 %63, label %64, label %83

64:                                               ; preds = %56
  br label %65

65:                                               ; preds = %64
  br label %66

66:                                               ; preds = %65
  br label %67

67:                                               ; preds = %66
  %68 = load i64, ptr @H5E_HEAP_g, align 8, !tbaa !13
  %69 = load i64, ptr @H5E_CANTALLOC_g, align 8, !tbaa !13
  %70 = call i32 (ptr, ptr, i32, i64, i64, ptr, ...) @H5E_printf_stack(ptr noundef @.str.2, ptr noundef @__func__.H5HL__cache_datablock_deserialize, i32 noundef 711, i64 noundef %68, i64 noundef %69, ptr noundef @.str.18)
  br label %71

71:                                               ; preds = %67
  br label %72

72:                                               ; preds = %71
  store i8 1, ptr %12, align 1, !tbaa !9
  %73 = load i8, ptr %12, align 1, !tbaa !9, !range !11, !noundef !12
  %74 = trunc i8 %73 to i1
  %75 = zext i1 %74 to i8
  store i8 %75, ptr %12, align 1, !tbaa !9
  br label %76

76:                                               ; preds = %72
  br label %77

77:                                               ; preds = %76
  br label %78

78:                                               ; preds = %77
  store ptr null, ptr %11, align 8, !tbaa !3
  br label %114

79:                                               ; No predecessors!
  br label %80

80:                                               ; preds = %79
  br label %81

81:                                               ; preds = %80
  br label %82

82:                                               ; preds = %81
  br label %83

83:                                               ; preds = %82, %56
  %84 = load ptr, ptr %10, align 8, !tbaa !31
  %85 = getelementptr inbounds nuw %struct.H5HL_t, ptr %84, i32 0, i32 13
  %86 = load ptr, ptr %85, align 8, !tbaa !39
  %87 = load ptr, ptr %5, align 8, !tbaa !3
  %88 = load i64, ptr %6, align 8, !tbaa !13
  call void @llvm.memcpy.p0.p0.i64(ptr align 1 %86, ptr align 1 %87, i64 %88, i1 false)
  %89 = load ptr, ptr %10, align 8, !tbaa !31
  %90 = call i32 @H5HL__fl_deserialize(ptr noundef %89)
  %91 = icmp eq i32 -1, %90
  br i1 %91, label %92, label %111

92:                                               ; preds = %83
  br label %93

93:                                               ; preds = %92
  br label %94

94:                                               ; preds = %93
  br label %95

95:                                               ; preds = %94
  %96 = load i64, ptr @H5E_HEAP_g, align 8, !tbaa !13
  %97 = load i64, ptr @H5E_CANTINIT_g, align 8, !tbaa !13
  %98 = call i32 (ptr, ptr, i32, i64, i64, ptr, ...) @H5E_printf_stack(ptr noundef @.str.2, ptr noundef @__func__.H5HL__cache_datablock_deserialize, i32 noundef 718, i64 noundef %96, i64 noundef %97, ptr noundef @.str.13)
  br label %99

99:                                               ; preds = %95
  br label %100

100:                                              ; preds = %99
  store i8 1, ptr %12, align 1, !tbaa !9
  %101 = load i8, ptr %12, align 1, !tbaa !9, !range !11, !noundef !12
  %102 = trunc i8 %101 to i1
  %103 = zext i1 %102 to i8
  store i8 %103, ptr %12, align 1, !tbaa !9
  br label %104

104:                                              ; preds = %100
  br label %105

105:                                              ; preds = %104
  br label %106

106:                                              ; preds = %105
  store ptr null, ptr %11, align 8, !tbaa !3
  br label %114

107:                                              ; No predecessors!
  br label %108

108:                                              ; preds = %107
  br label %109

109:                                              ; preds = %108
  br label %110

110:                                              ; preds = %109
  br label %111

111:                                              ; preds = %110, %83
  br label %112

112:                                              ; preds = %111, %51
  %113 = load ptr, ptr %9, align 8, !tbaa !62
  store ptr %113, ptr %11, align 8, !tbaa !3
  br label %114

114:                                              ; preds = %112, %106, %78, %46
  %115 = load ptr, ptr %11, align 8, !tbaa !3
  %116 = icmp ne ptr %115, null
  br i1 %116, label %141, label %117

117:                                              ; preds = %114
  %118 = load ptr, ptr %9, align 8, !tbaa !62
  %119 = icmp ne ptr %118, null
  br i1 %119, label %120, label %141

120:                                              ; preds = %117
  %121 = load ptr, ptr %9, align 8, !tbaa !62
  %122 = call i32 @H5HL__dblk_dest(ptr noundef %121)
  %123 = icmp eq i32 -1, %122
  br i1 %123, label %124, label %140

124:                                              ; preds = %120
  br label %125

125:                                              ; preds = %124
  br label %126

126:                                              ; preds = %125
  br label %127

127:                                              ; preds = %126
  %128 = load i64, ptr @H5E_HEAP_g, align 8, !tbaa !13
  %129 = load i64, ptr @H5E_CANTRELEASE_g, align 8, !tbaa !13
  %130 = call i32 (ptr, ptr, i32, i64, i64, ptr, ...) @H5E_printf_stack(ptr noundef @.str.2, ptr noundef @__func__.H5HL__cache_datablock_deserialize, i32 noundef 728, i64 noundef %128, i64 noundef %129, ptr noundef @.str.19)
  br label %131

131:                                              ; preds = %127
  br label %132

132:                                              ; preds = %131
  store i8 1, ptr %12, align 1, !tbaa !9
  %133 = load i8, ptr %12, align 1, !tbaa !9, !range !11, !noundef !12
  %134 = trunc i8 %133 to i1
  %135 = zext i1 %134 to i8
  store i8 %135, ptr %12, align 1, !tbaa !9
  br label %136

136:                                              ; preds = %132
  br label %137

137:                                              ; preds = %136
  store ptr null, ptr %11, align 8, !tbaa !3
  br label %138

138:                                              ; preds = %137
  br label %139

139:                                              ; preds = %138
  br label %140

140:                                              ; preds = %139, %120
  br label %141

141:                                              ; preds = %140, %117, %114
  br label %142

142:                                              ; preds = %141, %20
  %143 = load ptr, ptr %11, align 8, !tbaa !3
  call void @llvm.lifetime.end.p0(i64 1, ptr %12) #7
  call void @llvm.lifetime.end.p0(i64 8, ptr %11) #7
  call void @llvm.lifetime.end.p0(i64 8, ptr %10) #7
  call void @llvm.lifetime.end.p0(i64 8, ptr %9) #7
  ret ptr %143
}