; Function Attrs: nounwind uwtable
define internal ptr @H5HL__cache_datablock_deserialize(ptr noundef readonly captures(none) %0, i64 noundef %1, ptr noundef %2, ptr readnone captures(none) %3) #1 {
  %5 = load i8, ptr @H5HL_init_g, align 1, !tbaa !3, !range !7, !noundef !8
  %6 = trunc nuw i8 %5 to i1
  %7 = load i8, ptr @H5_libterm_g, align 1, !range !7
  %8 = trunc nuw i8 %7 to i1
  %9 = xor i1 %8, true
  %10 = select i1 %6, i1 true, i1 %9
  br i1 %10, label %11, label %.thread, !prof !9

11:                                               ; preds = %4
  %12 = tail call ptr @H5HL__dblk_new(ptr noundef %2) #9
  %13 = icmp eq ptr %12, null
  br i1 %13, label %14, label %18

14:                                               ; preds = %11
  %15 = load i64, ptr @H5E_HEAP_g, align 8, !tbaa !10
  %16 = load i64, ptr @H5E_CANTALLOC_g, align 8, !tbaa !10
  %17 = tail call i32 (ptr, ptr, i32, i64, i64, ptr, ...) @H5E_printf_stack(ptr noundef nonnull @.str.2, ptr noundef nonnull @__func__.H5HL__cache_datablock_deserialize, i32 noundef 705, i64 noundef %15, i64 noundef %16, ptr noundef nonnull @.str.12) #9
  br label %.thread

18:                                               ; preds = %11
  %19 = getelementptr inbounds nuw i8, ptr %2, i64 104
  %20 = load ptr, ptr %19, align 8, !tbaa !27
  %21 = icmp eq ptr %20, null
  br i1 %21, label %22, label %.thread

22:                                               ; preds = %18
  %23 = getelementptr inbounds nuw i8, ptr %2, i64 96
  %24 = load i64, ptr %23, align 8, !tbaa !19
  %25 = tail call noalias ptr @H5FL_blk_malloc(ptr noundef nonnull @H5_lheap_chunk_blk_free_list, i64 noundef %24) #9
  store ptr %25, ptr %19, align 8, !tbaa !27
  %26 = icmp eq ptr %25, null
  br i1 %26, label %27, label %31

27:                                               ; preds = %22
  %28 = load i64, ptr @H5E_HEAP_g, align 8, !tbaa !10
  %29 = load i64, ptr @H5E_CANTALLOC_g, align 8, !tbaa !10
  %30 = tail call i32 (ptr, ptr, i32, i64, i64, ptr, ...) @H5E_printf_stack(ptr noundef nonnull @.str.2, ptr noundef nonnull @__func__.H5HL__cache_datablock_deserialize, i32 noundef 711, i64 noundef %28, i64 noundef %29, ptr noundef nonnull @.str.18) #9
  br label %38

31:                                               ; preds = %22
  tail call void @llvm.memcpy.p0.p0.i64(ptr nonnull align 1 %25, ptr align 1 %0, i64 %1, i1 false)
  %32 = tail call fastcc i32 @H5HL__fl_deserialize(ptr noundef nonnull %2)
  %33 = icmp eq i32 %32, -1
  br i1 %33, label %34, label %.thread

34:                                               ; preds = %31
  %35 = load i64, ptr @H5E_HEAP_g, align 8, !tbaa !10
  %36 = load i64, ptr @H5E_CANTINIT_g, align 8, !tbaa !10
  %37 = tail call i32 (ptr, ptr, i32, i64, i64, ptr, ...) @H5E_printf_stack(ptr noundef nonnull @.str.2, ptr noundef nonnull @__func__.H5HL__cache_datablock_deserialize, i32 noundef 718, i64 noundef %35, i64 noundef %36, ptr noundef nonnull @.str.13) #9
  br label %38

38:                                               ; preds = %27, %34
  %39 = tail call i32 @H5HL__dblk_dest(ptr noundef nonnull %12) #9
  %40 = icmp eq i32 %39, -1
  br i1 %40, label %41, label %.thread

41:                                               ; preds = %38
  %42 = load i64, ptr @H5E_HEAP_g, align 8, !tbaa !10
  %43 = load i64, ptr @H5E_CANTRELEASE_g, align 8, !tbaa !10
  %44 = tail call i32 (ptr, ptr, i32, i64, i64, ptr, ...) @H5E_printf_stack(ptr noundef nonnull @.str.2, ptr noundef nonnull @__func__.H5HL__cache_datablock_deserialize, i32 noundef 728, i64 noundef %42, i64 noundef %43, ptr noundef nonnull @.str.19) #9
  br label %.thread

.thread:                                          ; preds = %14, %18, %31, %41, %38, %4
  %.0 = phi ptr [ null, %41 ], [ null, %38 ], [ null, %4 ], [ %12, %18 ], [ %12, %31 ], [ null, %14 ]
  ret ptr %.0
}